; Function Attrs: mustprogress uwtable
define void @_ZN7openvdb5v11_02io19DelayedLoadMetadata4copyERKNS0_8MetadataE(ptr noundef nonnull align 8 dereferenceable(56) %this, ptr noundef nonnull align 8 dereferenceable(8) %other) unnamed_addr #3 align 2 personality ptr @__gxx_personality_v0 {
entry:
  %_openvdb_throw_msg = alloca %"class.std::__cxx11::basic_string", align 8
  %_openvdb_throw_os = alloca %"class.std::__cxx11::basic_ostringstream", align 8
  %ref.tmp = alloca %"class.std::__cxx11::basic_string", align 8
  %0 = tail call ptr @__dynamic_cast(ptr nonnull %other, ptr nonnull @_ZTIN7openvdb5v11_08MetadataE, ptr nonnull @_ZTIN7openvdb5v11_02io19DelayedLoadMetadataE, i64 0) #27
  %cmp = icmp eq ptr %0, null
  br i1 %cmp, label %if.then, label %if.end

if.then:                                          ; preds = %entry
  call void @_ZNSt7__cxx1112basic_stringIcSt11char_traitsIcESaIcEEC1Ev(ptr noundef nonnull align 8 dereferenceable(32) %_openvdb_throw_msg) #27
  invoke void @_ZNSt7__cxx1119basic_ostringstreamIcSt11char_traitsIcESaIcEEC1Ev(ptr noundef nonnull align 8 dereferenceable(112) %_openvdb_throw_os)
          to label %invoke.cont unwind label %lpad

invoke.cont:                                      ; preds = %if.then
  %call = invoke noundef nonnull align 8 dereferenceable(8) ptr @_ZStlsISt11char_traitsIcEERSt13basic_ostreamIcT_ES5_PKc(ptr noundef nonnull align 8 dereferenceable(8) %_openvdb_throw_os, ptr noundef nonnull @.str)
          to label %invoke.cont3 unwind label %lpad2

invoke.cont3:                                     ; preds = %invoke.cont
  invoke void @_ZNKSt7__cxx1119basic_ostringstreamIcSt11char_traitsIcESaIcEE3strEv(ptr nonnull sret(%"class.std::__cxx11::basic_string") align 8 %ref.tmp, ptr noundef nonnull align 8 dereferenceable(112) %_openvdb_throw_os)
          to label %invoke.cont4 unwind label %lpad2

invoke.cont4:                                     ; preds = %invoke.cont3
  %call5 = call noundef nonnull align 8 dereferenceable(32) ptr @_ZNSt7__cxx1112basic_stringIcSt11char_traitsIcESaIcEEaSEOS4_(ptr noundef nonnull align 8 dereferenceable(32) %_openvdb_throw_msg, ptr noundef nonnull align 8 dereferenceable(32) %ref.tmp) #27
  call void @_ZNSt7__cxx1112basic_stringIcSt11char_traitsIcESaIcEED1Ev(ptr noundef nonnull align 8 dereferenceable(32) %ref.tmp) #27
  call void @_ZNSt7__cxx1119basic_ostringstreamIcSt11char_traitsIcESaIcEED1Ev(ptr noundef nonnull align 8 dereferenceable(112) %_openvdb_throw_os) #27
  br label %try.cont

lpad:                                             ; preds = %if.then
  %1 = landingpad { ptr, i32 }
          catch ptr null
  br label %catch

lpad2:                                            ; preds = %invoke.cont3, %invoke.cont
  %2 = landingpad { ptr, i32 }
          catch ptr null
  call void @_ZNSt7__cxx1119basic_ostringstreamIcSt11char_traitsIcESaIcEED1Ev(ptr noundef nonnull align 8 dereferenceable(112) %_openvdb_throw_os) #27
  br label %catch

catch:                                            ; preds = %lpad2, %lpad
  %.pn = phi { ptr, i32 } [ %2, %lpad2 ], [ %1, %lpad ]
  %exn.slot.0 = extractvalue { ptr, i32 } %.pn, 0
  %3 = call ptr @__cxa_begin_catch(ptr %exn.slot.0) #27
  invoke void @__cxa_end_catch()
          to label %try.cont unwind label %lpad6

try.cont:                                         ; preds = %catch, %invoke.cont4
  %exception = call ptr @__cxa_allocate_exception(i64 40) #27
  call void @_ZN7openvdb5v11_09ExceptionC2EPKcPKNSt7__cxx1112basic_stringIcSt11char_traitsIcESaIcEEE(ptr noundef nonnull align 8 dereferenceable(40) %exception, ptr noundef nonnull @.str.3, ptr noundef nonnull %_openvdb_throw_msg) #27
  store ptr getelementptr inbounds ({ [5 x ptr] }, ptr @_ZTVN7openvdb5v11_09TypeErrorE, i64 0, i32 0, i64 2), ptr %exception, align 8
  invoke void @__cxa_throw(ptr nonnull %exception, ptr nonnull @_ZTIN7openvdb5v11_09TypeErrorE, ptr nonnull @_ZN7openvdb5v11_09TypeErrorD2Ev) #24
          to label %unreachable unwind label %lpad6

lpad6:                                            ; preds = %try.cont, %catch
  %4 = landingpad { ptr, i32 }
          cleanup
  call void @_ZNSt7__cxx1112basic_stringIcSt11char_traitsIcESaIcEED1Ev(ptr noundef nonnull align 8 dereferenceable(32) %_openvdb_throw_msg) #27
  resume { ptr, i32 } %4

if.end:                                           ; preds = %entry
  %mMask = getelementptr inbounds i8, ptr %0, i64 8
  %mMask8 = getelementptr inbounds i8, ptr %this, i64 8
  %call9 = tail call noundef nonnull align 8 dereferenceable(24) ptr @_ZNSt6vectorIaSaIaEEaSERKS1_(ptr noundef nonnull align 8 dereferenceable(24) %mMask8, ptr noundef nonnull align 8 dereferenceable(24) %mMask)
  %mCompressedSize = getelementptr inbounds i8, ptr %0, i64 32
  %mCompressedSize10 = getelementptr inbounds i8, ptr %this, i64 32
  %call11 = tail call noundef nonnull align 8 dereferenceable(24) ptr @_ZNSt6vectorIlSaIlEEaSERKS1_(ptr noundef nonnull align 8 dereferenceable(24) %mCompressedSize10, ptr noundef nonnull align 8 dereferenceable(24) %mCompressedSize)
  ret void

unreachable:                                      ; preds = %try.cont
  unreachable
}